target datalayout = "e-m:e-p270:32:32-p271:32:32-p272:64:64-i64:64-i128:128-f80:128-n8:16:32:64-S128"
target triple = "x86_64-pc-linux-gnu"

%struct.ForEachState = type { ptr, i32 }
%struct.List = type { i32, i32, i32, ptr, [0 x %union.ListCell] }
%union.ListCell = type { ptr }
%struct.Expr = type { i32 }
%struct.TargetEntry = type { %struct.Expr, ptr, i16, ptr, i32, i32, i16, i8 }

@.str.1 = private unnamed_addr constant [15 x i8] c"parse_clause.c\00", align 1
@.str.12 = private unnamed_addr constant [81 x i8] c"in an aggregate with DISTINCT, ORDER BY expressions must appear in argument list\00", align 1
@.str.13 = private unnamed_addr constant [69 x i8] c"for SELECT DISTINCT, ORDER BY expressions must appear in select list\00", align 1
@__func__.transformDistinctClause = private unnamed_addr constant [24 x i8] c"transformDistinctClause\00", align 1
@.str.14 = private unnamed_addr constant [59 x i8] c"an aggregate with DISTINCT must have at least one argument\00", align 1
@.str.15 = private unnamed_addr constant [46 x i8] c"SELECT DISTINCT must have at least one column\00", align 1

; Function Attrs: nounwind uwtable
define dso_local ptr @transformDistinctClause(ptr noundef %0, ptr noundef %1, ptr noundef %2, i1 noundef zeroext %3) #0 {
  %5 = alloca ptr, align 8
  %6 = alloca ptr, align 8
  %7 = alloca ptr, align 8
  %8 = alloca i8, align 1
  %9 = alloca ptr, align 8
  %10 = alloca ptr, align 8
  %11 = alloca ptr, align 8
  %12 = alloca %struct.ForEachState, align 8
  %13 = alloca ptr, align 8
  %14 = alloca ptr, align 8
  %15 = alloca %struct.ForEachState, align 8
  %16 = alloca i32, align 4
  %17 = alloca ptr, align 8
  store ptr %0, ptr %5, align 8
  store ptr %1, ptr %6, align 8
  store ptr %2, ptr %7, align 8
  %18 = zext i1 %3 to i8
  store i8 %18, ptr %8, align 1
  call void @llvm.lifetime.start.p0(i64 8, ptr %9) #8
  store ptr null, ptr %9, align 8
  call void @llvm.lifetime.start.p0(i64 8, ptr %10) #8
  call void @llvm.lifetime.start.p0(i64 8, ptr %11) #8
  call void @llvm.lifetime.start.p0(i64 16, ptr %12) #8
  %19 = getelementptr inbounds nuw %struct.ForEachState, ptr %12, i32 0, i32 0
  %20 = load ptr, ptr %7, align 8
  store ptr %20, ptr %19, align 8
  %21 = getelementptr inbounds nuw %struct.ForEachState, ptr %12, i32 0, i32 1
  store i32 0, ptr %21, align 8
  %22 = getelementptr i8, ptr %12, i64 12
  call void @llvm.memset.p0.i64(ptr align 4 %22, i8 0, i64 4, i1 false)
  br label %23

23:                                               ; preds = %89, %4
  %24 = getelementptr inbounds nuw %struct.ForEachState, ptr %12, i32 0, i32 0
  %25 = load ptr, ptr %24, align 8
  %26 = icmp ne ptr %25, null
  br i1 %26, label %27, label %44

27:                                               ; preds = %23
  %28 = getelementptr inbounds nuw %struct.ForEachState, ptr %12, i32 0, i32 1
  %29 = load i32, ptr %28, align 8
  %30 = getelementptr inbounds nuw %struct.ForEachState, ptr %12, i32 0, i32 0
  %31 = load ptr, ptr %30, align 8
  %32 = getelementptr inbounds nuw %struct.List, ptr %31, i32 0, i32 1
  %33 = load i32, ptr %32, align 4
  %34 = icmp slt i32 %29, %33
  br i1 %34, label %35, label %44

35:                                               ; preds = %27
  %36 = getelementptr inbounds nuw %struct.ForEachState, ptr %12, i32 0, i32 0
  %37 = load ptr, ptr %36, align 8
  %38 = getelementptr inbounds nuw %struct.List, ptr %37, i32 0, i32 3
  %39 = load ptr, ptr %38, align 8
  %40 = getelementptr inbounds nuw %struct.ForEachState, ptr %12, i32 0, i32 1
  %41 = load i32, ptr %40, align 8
  %42 = sext i32 %41 to i64
  %43 = getelementptr inbounds %union.ListCell, ptr %39, i64 %42
  store ptr %43, ptr %10, align 8
  br label %45

44:                                               ; preds = %27, %23
  store ptr null, ptr %10, align 8
  br label %45

45:                                               ; preds = %44, %35
  %46 = phi i32 [ 1, %35 ], [ 0, %44 ]
  %47 = icmp ne i32 %46, 0
  br i1 %47, label %49, label %48

48:                                               ; preds = %45
  call void @llvm.lifetime.end.p0(i64 16, ptr %12) #8
  br label %93

49:                                               ; preds = %45
  call void @llvm.lifetime.start.p0(i64 8, ptr %13) #8
  %50 = load ptr, ptr %10, align 8
  %51 = load ptr, ptr %50, align 8
  store ptr %51, ptr %13, align 8
  call void @llvm.lifetime.start.p0(i64 8, ptr %14) #8
  %52 = load ptr, ptr %13, align 8
  %53 = load ptr, ptr %6, align 8
  %54 = load ptr, ptr %53, align 8
  %55 = call ptr @get_sortgroupclause_tle(ptr noundef %52, ptr noundef %54)
  store ptr %55, ptr %14, align 8
  %56 = load ptr, ptr %14, align 8
  %57 = getelementptr inbounds nuw %struct.TargetEntry, ptr %56, i32 0, i32 7
  %58 = load i8, ptr %57, align 2, !range !6, !noundef !7
  %59 = trunc i8 %58 to i1
  br i1 %59, label %60, label %84

60:                                               ; preds = %49
  br label %61

61:                                               ; preds = %60
  br i1 true, label %62, label %64

62:                                               ; preds = %61
  %63 = call zeroext i1 @errstart_cold(i32 noundef 21, ptr noundef null) #9
  br i1 %63, label %66, label %81

64:                                               ; preds = %61
  %65 = call zeroext i1 @errstart(i32 noundef 21, ptr noundef null)
  br i1 %65, label %66, label %81

66:                                               ; preds = %64, %62
  %67 = call i32 @errcode(i32 noundef 393348)
  %68 = load i8, ptr %8, align 1, !range !6, !noundef !7
  %69 = trunc i8 %68 to i1
  br i1 %69, label %70, label %72

70:                                               ; preds = %66
  %71 = call i32 (ptr, ...) @errmsg(ptr noundef @.str.12)
  br label %74

72:                                               ; preds = %66
  %73 = call i32 (ptr, ...) @errmsg(ptr noundef @.str.13)
  br label %74

74:                                               ; preds = %72, %70
  %75 = load ptr, ptr %5, align 8
  %76 = load ptr, ptr %14, align 8
  %77 = getelementptr inbounds nuw %struct.TargetEntry, ptr %76, i32 0, i32 1
  %78 = load ptr, ptr %77, align 8
  %79 = call i32 @exprLocation(ptr noundef %78)
  %80 = call i32 @parser_errposition(ptr noundef %75, i32 noundef %79)
  call void @errfinish(ptr noundef @.str.1, i32 noundef 3019, ptr noundef @__func__.transformDistinctClause)
  br label %81

81:                                               ; preds = %74, %64, %62
  unreachable

82:                                               ; No predecessors!
  br label %83

83:                                               ; preds = %82
  br label %84

84:                                               ; preds = %83, %49
  %85 = load ptr, ptr %9, align 8
  %86 = load ptr, ptr %13, align 8
  %87 = call ptr @copyObjectImpl(ptr noundef %86)
  %88 = call ptr @lappend(ptr noundef %85, ptr noundef %87)
  store ptr %88, ptr %9, align 8
  call void @llvm.lifetime.end.p0(i64 8, ptr %14) #8
  call void @llvm.lifetime.end.p0(i64 8, ptr %13) #8
  br label %89

89:                                               ; preds = %84
  %90 = getelementptr inbounds nuw %struct.ForEachState, ptr %12, i32 0, i32 1
  %91 = load i32, ptr %90, align 8
  %92 = add i32 %91, 1
  store i32 %92, ptr %90, align 8
  br label %23, !llvm.loop !30

93:                                               ; preds = %48
  call void @llvm.lifetime.start.p0(i64 16, ptr %15) #8
  %94 = getelementptr inbounds nuw %struct.ForEachState, ptr %15, i32 0, i32 0
  %95 = load ptr, ptr %6, align 8
  %96 = load ptr, ptr %95, align 8
  store ptr %96, ptr %94, align 8
  %97 = getelementptr inbounds nuw %struct.ForEachState, ptr %15, i32 0, i32 1
  store i32 0, ptr %97, align 8
  %98 = getelementptr i8, ptr %15, i64 12
  call void @llvm.memset.p0.i64(ptr align 4 %98, i8 0, i64 4, i1 false)
  br label %99

99:                                               ; preds = %147, %93
  %100 = getelementptr inbounds nuw %struct.ForEachState, ptr %15, i32 0, i32 0
  %101 = load ptr, ptr %100, align 8
  %102 = icmp ne ptr %101, null
  br i1 %102, label %103, label %120

103:                                              ; preds = %99
  %104 = getelementptr inbounds nuw %struct.ForEachState, ptr %15, i32 0, i32 1
  %105 = load i32, ptr %104, align 8
  %106 = getelementptr inbounds nuw %struct.ForEachState, ptr %15, i32 0, i32 0
  %107 = load ptr, ptr %106, align 8
  %108 = getelementptr inbounds nuw %struct.List, ptr %107, i32 0, i32 1
  %109 = load i32, ptr %108, align 4
  %110 = icmp slt i32 %105, %109
  br i1 %110, label %111, label %120

111:                                              ; preds = %103
  %112 = getelementptr inbounds nuw %struct.ForEachState, ptr %15, i32 0, i32 0
  %113 = load ptr, ptr %112, align 8
  %114 = getelementptr inbounds nuw %struct.List, ptr %113, i32 0, i32 3
  %115 = load ptr, ptr %114, align 8
  %116 = getelementptr inbounds nuw %struct.ForEachState, ptr %15, i32 0, i32 1
  %117 = load i32, ptr %116, align 8
  %118 = sext i32 %117 to i64
  %119 = getelementptr inbounds %union.ListCell, ptr %115, i64 %118
  store ptr %119, ptr %11, align 8
  br label %121

120:                                              ; preds = %103, %99
  store ptr null, ptr %11, align 8
  br label %121

121:                                              ; preds = %120, %111
  %122 = phi i32 [ 1, %111 ], [ 0, %120 ]
  %123 = icmp ne i32 %122, 0
  br i1 %123, label %125, label %124

124:                                              ; preds = %121
  store i32 7, ptr %16, align 4
  call void @llvm.lifetime.end.p0(i64 16, ptr %15) #8
  br label %151

125:                                              ; preds = %121
  call void @llvm.lifetime.start.p0(i64 8, ptr %17) #8
  %126 = load ptr, ptr %11, align 8
  %127 = load ptr, ptr %126, align 8
  store ptr %127, ptr %17, align 8
  %128 = load ptr, ptr %17, align 8
  %129 = getelementptr inbounds nuw %struct.TargetEntry, ptr %128, i32 0, i32 7
  %130 = load i8, ptr %129, align 2, !range !6, !noundef !7
  %131 = trunc i8 %130 to i1
  br i1 %131, label %132, label %133

132:                                              ; preds = %125
  store i32 9, ptr %16, align 4
  br label %144

133:                                              ; preds = %125
  %134 = load ptr, ptr %5, align 8
  %135 = load ptr, ptr %17, align 8
  %136 = load ptr, ptr %9, align 8
  %137 = load ptr, ptr %6, align 8
  %138 = load ptr, ptr %137, align 8
  %139 = load ptr, ptr %17, align 8
  %140 = getelementptr inbounds nuw %struct.TargetEntry, ptr %139, i32 0, i32 1
  %141 = load ptr, ptr %140, align 8
  %142 = call i32 @exprLocation(ptr noundef %141)
  %143 = call ptr @addTargetToGroupList(ptr noundef %134, ptr noundef %135, ptr noundef %136, ptr noundef %138, i32 noundef %142)
  store ptr %143, ptr %9, align 8
  store i32 0, ptr %16, align 4
  br label %144

144:                                              ; preds = %133, %132
  call void @llvm.lifetime.end.p0(i64 8, ptr %17) #8
  %145 = load i32, ptr %16, align 4
  switch i32 %145, label %174 [
    i32 0, label %146
    i32 9, label %147
  ]

146:                                              ; preds = %144
  br label %147

147:                                              ; preds = %146, %144
  %148 = getelementptr inbounds nuw %struct.ForEachState, ptr %15, i32 0, i32 1
  %149 = load i32, ptr %148, align 8
  %150 = add i32 %149, 1
  store i32 %150, ptr %148, align 8
  br label %99, !llvm.loop !31

151:                                              ; preds = %124
  %152 = load ptr, ptr %9, align 8
  %153 = icmp eq ptr %152, null
  br i1 %153, label %154, label %172

154:                                              ; preds = %151
  br label %155

155:                                              ; preds = %154
  br i1 true, label %156, label %158

156:                                              ; preds = %155
  %157 = call zeroext i1 @errstart_cold(i32 noundef 21, ptr noundef null) #9
  br i1 %157, label %160, label %169

158:                                              ; preds = %155
  %159 = call zeroext i1 @errstart(i32 noundef 21, ptr noundef null)
  br i1 %159, label %160, label %169

160:                                              ; preds = %158, %156
  %161 = call i32 @errcode(i32 noundef 16801924)
  %162 = load i8, ptr %8, align 1, !range !6, !noundef !7
  %163 = trunc i8 %162 to i1
  br i1 %163, label %164, label %166

164:                                              ; preds = %160
  %165 = call i32 (ptr, ...) @errmsg(ptr noundef @.str.14)
  br label %168

166:                                              ; preds = %160
  %167 = call i32 (ptr, ...) @errmsg(ptr noundef @.str.15)
  br label %168

168:                                              ; preds = %166, %164
  call void @errfinish(ptr noundef @.str.1, i32 noundef 3050, ptr noundef @__func__.transformDistinctClause)
  br label %169

169:                                              ; preds = %168, %158, %156
  unreachable

170:                                              ; No predecessors!
  br label %171

171:                                              ; preds = %170
  br label %172

172:                                              ; preds = %171, %151
  %173 = load ptr, ptr %9, align 8
  store i32 1, ptr %16, align 4
  call void @llvm.lifetime.end.p0(i64 8, ptr %11) #8
  call void @llvm.lifetime.end.p0(i64 8, ptr %10) #8
  call void @llvm.lifetime.end.p0(i64 8, ptr %9) #8
  ret ptr %173

174:                                              ; preds = %144
  unreachable
}