; Function Attrs: nounwind uwtable
define dso_local nonnull ptr @transformDistinctClause(ptr noundef %0, ptr noundef readonly captures(none) %1, ptr noundef readonly captures(address_is_null) %2, i1 noundef zeroext %3) local_unnamed_addr #0 {
  %.not = icmp eq ptr %2, null
  br i1 %.not, label %._crit_edge, label %.lr.ph

.lr.ph:                                           ; preds = %4
  %5 = getelementptr inbounds nuw i8, ptr %2, i64 4
  %6 = getelementptr inbounds nuw i8, ptr %2, i64 16
  %7 = load i32, ptr %5, align 4
  %8 = icmp sgt i32 %7, 0
  br i1 %8, label %.lr.ph53, label %._crit_edge

._crit_edge:                                      ; preds = %29, %.lr.ph, %4
  %.0.lcssa = phi ptr [ null, %4 ], [ null, %.lr.ph ], [ %31, %29 ]
  %9 = load ptr, ptr %1, align 8
  %10 = getelementptr inbounds nuw i8, ptr %9, i64 4
  %.not36 = icmp eq ptr %9, null
  br i1 %.not36, label %._crit_edge59, label %.lr.ph58

.lr.ph58:                                         ; preds = %._crit_edge
  %11 = getelementptr inbounds nuw i8, ptr %9, i64 16
  %12 = load i32, ptr %10, align 4
  %13 = icmp sgt i32 %12, 0
  br i1 %13, label %.lr.ph67, label %._crit_edge59

.lr.ph53:                                         ; preds = %.lr.ph, %29
  %indvars.iv = phi i64 [ %indvars.iv.next, %29 ], [ 0, %.lr.ph ]
  %.04651 = phi ptr [ %31, %29 ], [ null, %.lr.ph ]
  %14 = load ptr, ptr %6, align 8
  %15 = getelementptr inbounds nuw %union.ListCell, ptr %14, i64 %indvars.iv
  %16 = load ptr, ptr %15, align 8
  %17 = load ptr, ptr %1, align 8
  %18 = tail call ptr @get_sortgroupclause_tle(ptr noundef %16, ptr noundef %17) #9
  %19 = getelementptr inbounds nuw i8, ptr %18, i64 42
  %20 = load i8, ptr %19, align 2, !range !4, !noundef !5
  %21 = trunc nuw i8 %20 to i1
  br i1 %21, label %.split, label %29

.split:                                           ; preds = %.lr.ph53
  %22 = tail call zeroext i1 @errstart_cold(i32 noundef 21, ptr noundef null) #10
  tail call void @llvm.assume(i1 %22)
  %23 = tail call i32 @errcode(i32 noundef 393348) #9
  %.str.12..str.13 = select i1 %3, ptr @.str.12, ptr @.str.13
  %24 = tail call i32 (ptr, ...) @errmsg(ptr noundef nonnull %.str.12..str.13) #9
  %25 = getelementptr inbounds nuw i8, ptr %18, i64 8
  %26 = load ptr, ptr %25, align 8
  %27 = tail call i32 @exprLocation(ptr noundef %26) #9
  %28 = tail call i32 @parser_errposition(ptr noundef %0, i32 noundef %27) #9
  tail call void @errfinish(ptr noundef nonnull @.str.1, i32 noundef 3019, ptr noundef nonnull @__func__.transformDistinctClause) #9
  unreachable

29:                                               ; preds = %.lr.ph53
  %30 = tail call ptr @copyObjectImpl(ptr noundef %16) #9
  %31 = tail call ptr @lappend(ptr noundef %.04651, ptr noundef %30) #9
  %indvars.iv.next = add nuw nsw i64 %indvars.iv, 1
  %32 = load i32, ptr %5, align 4
  %33 = sext i32 %32 to i64
  %34 = icmp slt i64 %indvars.iv.next, %33
  br i1 %34, label %.lr.ph53, label %._crit_edge

._crit_edge59:                                    ; preds = %49, %.lr.ph58, %._crit_edge
  %.1.lcssa = phi ptr [ %.0.lcssa, %._crit_edge ], [ %.0.lcssa, %.lr.ph58 ], [ %.2, %49 ]
  %35 = icmp eq ptr %.1.lcssa, null
  br i1 %35, label %53, label %57

.lr.ph67:                                         ; preds = %.lr.ph58, %49
  %36 = phi i32 [ %50, %49 ], [ %12, %.lr.ph58 ]
  %indvars.iv72 = phi i64 [ %indvars.iv.next73, %49 ], [ 0, %.lr.ph58 ]
  %.15665 = phi ptr [ %.2, %49 ], [ %.0.lcssa, %.lr.ph58 ]
  %37 = load ptr, ptr %11, align 8
  %38 = getelementptr inbounds nuw %union.ListCell, ptr %37, i64 %indvars.iv72
  %39 = load ptr, ptr %38, align 8
  %40 = getelementptr inbounds nuw i8, ptr %39, i64 42
  %41 = load i8, ptr %40, align 2, !range !4, !noundef !5
  %42 = trunc nuw i8 %41 to i1
  br i1 %42, label %49, label %43

43:                                               ; preds = %.lr.ph67
  %44 = load ptr, ptr %1, align 8
  %45 = getelementptr inbounds nuw i8, ptr %39, i64 8
  %46 = load ptr, ptr %45, align 8
  %47 = tail call i32 @exprLocation(ptr noundef %46) #9
  %48 = tail call fastcc ptr @addTargetToGroupList(ptr noundef %0, ptr noundef nonnull %39, ptr noundef %.15665, ptr noundef %44, i32 noundef %47)
  %.pre = load i32, ptr %10, align 4
  br label %49

49:                                               ; preds = %.lr.ph67, %43
  %50 = phi i32 [ %.pre, %43 ], [ %36, %.lr.ph67 ]
  %.2 = phi ptr [ %48, %43 ], [ %.15665, %.lr.ph67 ]
  %indvars.iv.next73 = add nuw nsw i64 %indvars.iv72, 1
  %51 = sext i32 %50 to i64
  %52 = icmp slt i64 %indvars.iv.next73, %51
  br i1 %52, label %.lr.ph67, label %._crit_edge59

53:                                               ; preds = %._crit_edge59
  %54 = tail call zeroext i1 @errstart_cold(i32 noundef 21, ptr noundef null) #10
  tail call void @llvm.assume(i1 %54)
  %55 = tail call i32 @errcode(i32 noundef 16801924) #9
  %.str.14..str.15 = select i1 %3, ptr @.str.14, ptr @.str.15
  %56 = tail call i32 (ptr, ...) @errmsg(ptr noundef nonnull %.str.14..str.15) #9
  tail call void @errfinish(ptr noundef nonnull @.str.1, i32 noundef 3050, ptr noundef nonnull @__func__.transformDistinctClause) #9
  unreachable

57:                                               ; preds = %._crit_edge59
  ret ptr %.1.lcssa
}